target datalayout = "e-m:e-p270:32:32-p271:32:32-p272:64:64-i64:64-i128:128-f80:128-n8:16:32:64-S128"
target triple = "x86_64-pc-linux-gnu"

%struct.gmx_tng_trajectory = type { ptr, i8, i64, i8, double, i8, i32, i32 }

; Function Attrs: mustprogress uwtable
define noundef float @_Z31gmx_tng_get_time_of_final_frameP18gmx_tng_trajectory(ptr noundef %0) #0 {
  %2 = alloca ptr, align 8
  %3 = alloca i64, align 8
  %4 = alloca double, align 8
  %5 = alloca float, align 4
  %6 = alloca ptr, align 8
  store ptr %0, ptr %2, align 8, !tbaa !13
  call void @llvm.lifetime.start.p0(i64 8, ptr %3) #16
  call void @llvm.lifetime.start.p0(i64 8, ptr %4) #16
  call void @llvm.lifetime.start.p0(i64 4, ptr %5) #16
  call void @llvm.lifetime.start.p0(i64 8, ptr %6) #16
  %7 = load ptr, ptr %2, align 8, !tbaa !13
  %8 = getelementptr inbounds nuw %struct.gmx_tng_trajectory, ptr %7, i32 0, i32 0
  %9 = load ptr, ptr %8, align 8, !tbaa !83
  store ptr %9, ptr %6, align 8, !tbaa !26
  %10 = load ptr, ptr %6, align 8, !tbaa !26
  %11 = call i32 @tng_num_frames_get(ptr noundef %10, ptr noundef %3)
  %12 = load ptr, ptr %6, align 8, !tbaa !26
  %13 = load i64, ptr %3, align 8, !tbaa !42
  %14 = sub nsw i64 %13, 1
  %15 = call i32 @tng_util_time_of_frame_get(ptr noundef %12, i64 noundef %14, ptr noundef %4)
  %16 = load double, ptr %4, align 8, !tbaa !365
  %17 = fdiv double %16, 0x3D719799812DEA11
  %18 = fptrunc double %17 to float
  store float %18, ptr %5, align 4, !tbaa !239
  %19 = load float, ptr %5, align 4, !tbaa !239
  call void @llvm.lifetime.end.p0(i64 8, ptr %6) #16
  call void @llvm.lifetime.end.p0(i64 4, ptr %5) #16
  call void @llvm.lifetime.end.p0(i64 8, ptr %4) #16
  call void @llvm.lifetime.end.p0(i64 8, ptr %3) #16
  ret float %19
}