; Function Attrs: mustprogress uwtable
define noundef float @_Z31gmx_tng_get_time_of_final_frameP18gmx_tng_trajectory(ptr noundef readonly captures(none) %0) local_unnamed_addr #0 {
  %2 = alloca i64, align 8
  %3 = alloca double, align 8
  call void @llvm.lifetime.start.p0(i64 8, ptr nonnull %2) #22
  call void @llvm.lifetime.start.p0(i64 8, ptr nonnull %3) #22
  %4 = load ptr, ptr %0, align 8, !tbaa !41
  %5 = call i32 @tng_num_frames_get(ptr noundef %4, ptr noundef nonnull %2)
  %6 = load i64, ptr %2, align 8, !tbaa !31
  %7 = add nsw i64 %6, -1
  %8 = call i32 @tng_util_time_of_frame_get(ptr noundef %4, i64 noundef %7, ptr noundef nonnull %3)
  %9 = load double, ptr %3, align 8, !tbaa !263
  %10 = fdiv double %9, 0x3D719799812DEA11
  %11 = fptrunc double %10 to float
  call void @llvm.lifetime.end.p0(i64 8, ptr nonnull %3) #22
  call void @llvm.lifetime.end.p0(i64 8, ptr nonnull %2) #22
  ret float %11
}